; Function Attrs: nounwind sspstrong uwtable
define internal range(i64 1, -7) i64 @gzfile_read_raw_rescue(i64 noundef %0, i64 %1) #0 {
  %3 = tail call i64 @rb_errinfo() #18
  %4 = load i64, ptr @rb_eNoMethodError, align 8, !tbaa !6
  %5 = tail call i64 @rb_obj_is_kind_of(i64 noundef %3, i64 noundef %4) #18
  %.not = icmp eq i64 %5, 0
  br i1 %.not, label %Check_Type.exit, label %6

6:                                                ; preds = %2
  %7 = inttoptr i64 %0 to ptr
  %8 = getelementptr inbounds nuw i8, ptr %7, i64 8
  %9 = getelementptr inbounds nuw i8, ptr %7, i64 16
  %10 = load i64, ptr %9, align 8, !tbaa !149
  %11 = icmp eq i64 %10, 4
  %12 = select i1 %11, i32 1, i32 2
  %13 = load i64, ptr %7, align 8, !tbaa !255
  %14 = load i64, ptr @id_read, align 8, !tbaa !6
  %15 = tail call i64 @rb_funcallv(i64 noundef %13, i64 noundef %14, i32 noundef %12, ptr noundef nonnull %8) #18
  %16 = icmp eq i64 %15, 4
  br i1 %16, label %Check_Type.exit, label %17

17:                                               ; preds = %6
  %18 = icmp eq i64 %15, 0
  %19 = and i64 %15, 7
  %20 = icmp ne i64 %19, 0
  %21 = or i1 %18, %20
  br i1 %21, label %rbimpl_RB_TYPE_P_fastpath.exit.thread.i, label %rbimpl_RB_TYPE_P_fastpath.exit.i, !prof !157

rbimpl_RB_TYPE_P_fastpath.exit.i:                 ; preds = %17
  %22 = inttoptr i64 %15 to ptr
  %23 = load i64, ptr %22, align 8, !tbaa !16
  %24 = and i64 %23, 31
  %25 = icmp eq i64 %24, 5
  br i1 %25, label %Check_Type.exit, label %rbimpl_RB_TYPE_P_fastpath.exit.thread.i, !prof !158

rbimpl_RB_TYPE_P_fastpath.exit.thread.i:          ; preds = %rbimpl_RB_TYPE_P_fastpath.exit.i, %17
  tail call void @rb_unexpected_type(i64 noundef %15, i32 noundef 5) #21
  unreachable

Check_Type.exit:                                  ; preds = %rbimpl_RB_TYPE_P_fastpath.exit.i, %6, %2
  %.0 = phi i64 [ 4, %2 ], [ 4, %6 ], [ %15, %rbimpl_RB_TYPE_P_fastpath.exit.i ]
  ret i64 %.0
}